target datalayout = "e-m:e-p270:32:32-p271:32:32-p272:64:64-i64:64-i128:128-f80:128-n8:16:32:64-S128"
target triple = "x86_64-pc-linux-gnu"

%struct.H5EA_create_t = type { ptr, i8, i8, i8, i8, i8, i8 }

; Function Attrs: nounwind uwtable
define i32 @H5EA__cmp_cparam_test(ptr noundef %0, ptr noundef %1) #0 {
  %3 = alloca ptr, align 8
  %4 = alloca ptr, align 8
  %5 = alloca i32, align 4
  store ptr %0, ptr %3, align 8
  store ptr %1, ptr %4, align 8
  store i32 0, ptr %5, align 4
  %6 = load ptr, ptr %3, align 8
  %7 = getelementptr inbounds %struct.H5EA_create_t, ptr %6, i32 0, i32 1
  %8 = load i8, ptr %7, align 8
  %9 = zext i8 %8 to i32
  %10 = load ptr, ptr %4, align 8
  %11 = getelementptr inbounds %struct.H5EA_create_t, ptr %10, i32 0, i32 1
  %12 = load i8, ptr %11, align 8
  %13 = zext i8 %12 to i32
  %14 = icmp slt i32 %9, %13
  br i1 %14, label %15, label %18

15:                                               ; preds = %2
  br label %16

16:                                               ; preds = %15
  store i32 -1, ptr %5, align 4
  br label %168

17:                                               ; No predecessors!
  br label %32

18:                                               ; preds = %2
  %19 = load ptr, ptr %3, align 8
  %20 = getelementptr inbounds %struct.H5EA_create_t, ptr %19, i32 0, i32 1
  %21 = load i8, ptr %20, align 8
  %22 = zext i8 %21 to i32
  %23 = load ptr, ptr %4, align 8
  %24 = getelementptr inbounds %struct.H5EA_create_t, ptr %23, i32 0, i32 1
  %25 = load i8, ptr %24, align 8
  %26 = zext i8 %25 to i32
  %27 = icmp sgt i32 %22, %26
  br i1 %27, label %28, label %31

28:                                               ; preds = %18
  br label %29

29:                                               ; preds = %28
  store i32 1, ptr %5, align 4
  br label %168

30:                                               ; No predecessors!
  br label %31

31:                                               ; preds = %30, %18
  br label %32

32:                                               ; preds = %31, %17
  %33 = load ptr, ptr %3, align 8
  %34 = getelementptr inbounds %struct.H5EA_create_t, ptr %33, i32 0, i32 2
  %35 = load i8, ptr %34, align 1
  %36 = zext i8 %35 to i32
  %37 = load ptr, ptr %4, align 8
  %38 = getelementptr inbounds %struct.H5EA_create_t, ptr %37, i32 0, i32 2
  %39 = load i8, ptr %38, align 1
  %40 = zext i8 %39 to i32
  %41 = icmp slt i32 %36, %40
  br i1 %41, label %42, label %45

42:                                               ; preds = %32
  br label %43

43:                                               ; preds = %42
  store i32 -1, ptr %5, align 4
  br label %168

44:                                               ; No predecessors!
  br label %59

45:                                               ; preds = %32
  %46 = load ptr, ptr %3, align 8
  %47 = getelementptr inbounds %struct.H5EA_create_t, ptr %46, i32 0, i32 2
  %48 = load i8, ptr %47, align 1
  %49 = zext i8 %48 to i32
  %50 = load ptr, ptr %4, align 8
  %51 = getelementptr inbounds %struct.H5EA_create_t, ptr %50, i32 0, i32 2
  %52 = load i8, ptr %51, align 1
  %53 = zext i8 %52 to i32
  %54 = icmp sgt i32 %49, %53
  br i1 %54, label %55, label %58

55:                                               ; preds = %45
  br label %56

56:                                               ; preds = %55
  store i32 1, ptr %5, align 4
  br label %168

57:                                               ; No predecessors!
  br label %58

58:                                               ; preds = %57, %45
  br label %59

59:                                               ; preds = %58, %44
  %60 = load ptr, ptr %3, align 8
  %61 = getelementptr inbounds %struct.H5EA_create_t, ptr %60, i32 0, i32 3
  %62 = load i8, ptr %61, align 2
  %63 = zext i8 %62 to i32
  %64 = load ptr, ptr %4, align 8
  %65 = getelementptr inbounds %struct.H5EA_create_t, ptr %64, i32 0, i32 3
  %66 = load i8, ptr %65, align 2
  %67 = zext i8 %66 to i32
  %68 = icmp slt i32 %63, %67
  br i1 %68, label %69, label %72

69:                                               ; preds = %59
  br label %70

70:                                               ; preds = %69
  store i32 -1, ptr %5, align 4
  br label %168

71:                                               ; No predecessors!
  br label %86

72:                                               ; preds = %59
  %73 = load ptr, ptr %3, align 8
  %74 = getelementptr inbounds %struct.H5EA_create_t, ptr %73, i32 0, i32 3
  %75 = load i8, ptr %74, align 2
  %76 = zext i8 %75 to i32
  %77 = load ptr, ptr %4, align 8
  %78 = getelementptr inbounds %struct.H5EA_create_t, ptr %77, i32 0, i32 3
  %79 = load i8, ptr %78, align 2
  %80 = zext i8 %79 to i32
  %81 = icmp sgt i32 %76, %80
  br i1 %81, label %82, label %85

82:                                               ; preds = %72
  br label %83

83:                                               ; preds = %82
  store i32 1, ptr %5, align 4
  br label %168

84:                                               ; No predecessors!
  br label %85

85:                                               ; preds = %84, %72
  br label %86

86:                                               ; preds = %85, %71
  %87 = load ptr, ptr %3, align 8
  %88 = getelementptr inbounds %struct.H5EA_create_t, ptr %87, i32 0, i32 5
  %89 = load i8, ptr %88, align 4
  %90 = zext i8 %89 to i32
  %91 = load ptr, ptr %4, align 8
  %92 = getelementptr inbounds %struct.H5EA_create_t, ptr %91, i32 0, i32 5
  %93 = load i8, ptr %92, align 4
  %94 = zext i8 %93 to i32
  %95 = icmp slt i32 %90, %94
  br i1 %95, label %96, label %99

96:                                               ; preds = %86
  br label %97

97:                                               ; preds = %96
  store i32 -1, ptr %5, align 4
  br label %168

98:                                               ; No predecessors!
  br label %113

99:                                               ; preds = %86
  %100 = load ptr, ptr %3, align 8
  %101 = getelementptr inbounds %struct.H5EA_create_t, ptr %100, i32 0, i32 5
  %102 = load i8, ptr %101, align 4
  %103 = zext i8 %102 to i32
  %104 = load ptr, ptr %4, align 8
  %105 = getelementptr inbounds %struct.H5EA_create_t, ptr %104, i32 0, i32 5
  %106 = load i8, ptr %105, align 4
  %107 = zext i8 %106 to i32
  %108 = icmp sgt i32 %103, %107
  br i1 %108, label %109, label %112

109:                                              ; preds = %99
  br label %110

110:                                              ; preds = %109
  store i32 1, ptr %5, align 4
  br label %168

111:                                              ; No predecessors!
  br label %112

112:                                              ; preds = %111, %99
  br label %113

113:                                              ; preds = %112, %98
  %114 = load ptr, ptr %3, align 8
  %115 = getelementptr inbounds %struct.H5EA_create_t, ptr %114, i32 0, i32 4
  %116 = load i8, ptr %115, align 1
  %117 = zext i8 %116 to i32
  %118 = load ptr, ptr %4, align 8
  %119 = getelementptr inbounds %struct.H5EA_create_t, ptr %118, i32 0, i32 4
  %120 = load i8, ptr %119, align 1
  %121 = zext i8 %120 to i32
  %122 = icmp slt i32 %117, %121
  br i1 %122, label %123, label %126

123:                                              ; preds = %113
  br label %124

124:                                              ; preds = %123
  store i32 -1, ptr %5, align 4
  br label %168

125:                                              ; No predecessors!
  br label %140

126:                                              ; preds = %113
  %127 = load ptr, ptr %3, align 8
  %128 = getelementptr inbounds %struct.H5EA_create_t, ptr %127, i32 0, i32 4
  %129 = load i8, ptr %128, align 1
  %130 = zext i8 %129 to i32
  %131 = load ptr, ptr %4, align 8
  %132 = getelementptr inbounds %struct.H5EA_create_t, ptr %131, i32 0, i32 4
  %133 = load i8, ptr %132, align 1
  %134 = zext i8 %133 to i32
  %135 = icmp sgt i32 %130, %134
  br i1 %135, label %136, label %139

136:                                              ; preds = %126
  br label %137

137:                                              ; preds = %136
  store i32 1, ptr %5, align 4
  br label %168

138:                                              ; No predecessors!
  br label %139

139:                                              ; preds = %138, %126
  br label %140

140:                                              ; preds = %139, %125
  %141 = load ptr, ptr %3, align 8
  %142 = getelementptr inbounds %struct.H5EA_create_t, ptr %141, i32 0, i32 6
  %143 = load i8, ptr %142, align 1
  %144 = zext i8 %143 to i32
  %145 = load ptr, ptr %4, align 8
  %146 = getelementptr inbounds %struct.H5EA_create_t, ptr %145, i32 0, i32 6
  %147 = load i8, ptr %146, align 1
  %148 = zext i8 %147 to i32
  %149 = icmp slt i32 %144, %148
  br i1 %149, label %150, label %153

150:                                              ; preds = %140
  br label %151

151:                                              ; preds = %150
  store i32 -1, ptr %5, align 4
  br label %168

152:                                              ; No predecessors!
  br label %167

153:                                              ; preds = %140
  %154 = load ptr, ptr %3, align 8
  %155 = getelementptr inbounds %struct.H5EA_create_t, ptr %154, i32 0, i32 6
  %156 = load i8, ptr %155, align 1
  %157 = zext i8 %156 to i32
  %158 = load ptr, ptr %4, align 8
  %159 = getelementptr inbounds %struct.H5EA_create_t, ptr %158, i32 0, i32 6
  %160 = load i8, ptr %159, align 1
  %161 = zext i8 %160 to i32
  %162 = icmp sgt i32 %157, %161
  br i1 %162, label %163, label %166

163:                                              ; preds = %153
  br label %164

164:                                              ; preds = %163
  store i32 1, ptr %5, align 4
  br label %168

165:                                              ; No predecessors!
  br label %166

166:                                              ; preds = %165, %153
  br label %167

167:                                              ; preds = %166, %152
  br label %168

168:                                              ; preds = %167, %164, %151, %137, %124, %110, %97, %83, %70, %56, %43, %29, %16
  %169 = load i32, ptr %5, align 4
  ret i32 %169
}