; Function Attrs: mustprogress nofree norecurse nosync nounwind willreturn memory(argmem: read) uwtable
define range(i32 -1, 2) i32 @H5EA__cmp_cparam_test(ptr noundef readonly captures(none) %0, ptr noundef readonly captures(none) %1) local_unnamed_addr #4 {
  %3 = getelementptr inbounds nuw i8, ptr %0, i64 8
  %4 = load i8, ptr %3, align 8
  %5 = getelementptr inbounds nuw i8, ptr %1, i64 8
  %6 = load i8, ptr %5, align 8
  %7 = icmp ult i8 %4, %6
  br i1 %7, label %50, label %8

8:                                                ; preds = %2
  %9 = icmp ugt i8 %4, %6
  br i1 %9, label %50, label %10

10:                                               ; preds = %8
  %11 = getelementptr inbounds nuw i8, ptr %0, i64 9
  %12 = load i8, ptr %11, align 1
  %13 = getelementptr inbounds nuw i8, ptr %1, i64 9
  %14 = load i8, ptr %13, align 1
  %15 = icmp ult i8 %12, %14
  br i1 %15, label %50, label %16

16:                                               ; preds = %10
  %17 = icmp ugt i8 %12, %14
  br i1 %17, label %50, label %18

18:                                               ; preds = %16
  %19 = getelementptr inbounds nuw i8, ptr %0, i64 10
  %20 = load i8, ptr %19, align 2
  %21 = getelementptr inbounds nuw i8, ptr %1, i64 10
  %22 = load i8, ptr %21, align 2
  %23 = icmp ult i8 %20, %22
  br i1 %23, label %50, label %24

24:                                               ; preds = %18
  %25 = icmp ugt i8 %20, %22
  br i1 %25, label %50, label %26

26:                                               ; preds = %24
  %27 = getelementptr inbounds nuw i8, ptr %0, i64 12
  %28 = load i8, ptr %27, align 4
  %29 = getelementptr inbounds nuw i8, ptr %1, i64 12
  %30 = load i8, ptr %29, align 4
  %31 = icmp ult i8 %28, %30
  br i1 %31, label %50, label %32

32:                                               ; preds = %26
  %33 = icmp ugt i8 %28, %30
  br i1 %33, label %50, label %34

34:                                               ; preds = %32
  %35 = getelementptr inbounds nuw i8, ptr %0, i64 11
  %36 = load i8, ptr %35, align 1
  %37 = getelementptr inbounds nuw i8, ptr %1, i64 11
  %38 = load i8, ptr %37, align 1
  %39 = icmp ult i8 %36, %38
  br i1 %39, label %50, label %40

40:                                               ; preds = %34
  %41 = icmp ugt i8 %36, %38
  br i1 %41, label %50, label %42

42:                                               ; preds = %40
  %43 = getelementptr inbounds nuw i8, ptr %0, i64 13
  %44 = load i8, ptr %43, align 1
  %45 = getelementptr inbounds nuw i8, ptr %1, i64 13
  %46 = load i8, ptr %45, align 1
  %47 = icmp ult i8 %44, %46
  br i1 %47, label %50, label %48

48:                                               ; preds = %42
  %49 = icmp ugt i8 %44, %46
  %spec.select = zext i1 %49 to i32
  br label %50

50:                                               ; preds = %48, %42, %40, %34, %32, %26, %24, %18, %16, %10, %8, %2
  %.0 = phi i32 [ -1, %2 ], [ 1, %8 ], [ -1, %10 ], [ 1, %16 ], [ -1, %18 ], [ 1, %24 ], [ -1, %26 ], [ 1, %32 ], [ -1, %34 ], [ 1, %40 ], [ -1, %42 ], [ %spec.select, %48 ]
  ret i32 %.0
}